; Function Attrs: mustprogress nounwind uwtable
define internal void @_ZZNK4llvm14MCLOHDirective11getEmitSizeERKNS_11MCAssemblerERKNS_16MachObjectWriterEEN20raw_counting_ostreamD2Ev(ptr noundef nonnull align 8 dereferenceable(56) %0) unnamed_addr #0 align 2 {
  store ptr getelementptr inbounds inrange(-16, 104) (i8, ptr @_ZTVZNK4llvm14MCLOHDirective11getEmitSizeERKNS_11MCAssemblerERKNS_16MachObjectWriterEE20raw_counting_ostream, i64 16), ptr %0, align 8
  %2 = getelementptr inbounds nuw i8, ptr %0, i64 32
  %3 = load ptr, ptr %2, align 8
  %4 = getelementptr inbounds nuw i8, ptr %0, i64 16
  %5 = load ptr, ptr %4, align 8
  %.not.i = icmp eq ptr %3, %5
  br i1 %.not.i, label %_ZN4llvm11raw_ostream5flushEv.exit, label %6

6:                                                ; preds = %1
  tail call void @_ZN4llvm11raw_ostream14flush_nonemptyEv(ptr noundef nonnull align 8 dereferenceable(48) %0) #7
  br label %_ZN4llvm11raw_ostream5flushEv.exit

_ZN4llvm11raw_ostream5flushEv.exit:               ; preds = %1, %6
  tail call void @_ZN4llvm11raw_ostreamD2Ev(ptr noundef nonnull align 8 dereferenceable(48) %0) #7
  ret void
}